target datalayout = "e-m:e-p270:32:32-p271:32:32-p272:64:64-i64:64-i128:128-f80:128-n8:16:32:64-S128"
target triple = "x86_64-pc-linux-gnu"

%"union.absl::lts_20240722::internal_any_invocable::TypeErasedState" = type { %struct.anon }
%struct.anon = type { ptr, i64 }
%"class.grpc_core::(anonymous namespace)::HttpConnectHandshaker" = type { %"class.grpc_core::Handshaker", %"class.absl::lts_20240722::Mutex", ptr, %"class.absl::lts_20240722::AnyInvocable.75", %"class.grpc_core::SliceBuffer", %struct.grpc_closure, %struct.grpc_closure, %struct.grpc_http_parser, %struct.grpc_http_response }
%"class.grpc_core::Handshaker" = type { %"class.grpc_core::RefCounted.74" }
%"class.grpc_core::RefCounted.74" = type { %"class.grpc_core::PolymorphicRefCount", %"class.grpc_core::RefCount" }
%"class.grpc_core::PolymorphicRefCount" = type { ptr }
%"class.grpc_core::RefCount" = type { %"struct.std::atomic" }
%"struct.std::atomic" = type { %"struct.std::__atomic_base" }
%"struct.std::__atomic_base" = type { i64 }
%"class.absl::lts_20240722::Mutex" = type { %"struct.std::atomic" }
%"class.absl::lts_20240722::AnyInvocable.75" = type { %"class.absl::lts_20240722::internal_any_invocable::Impl.76" }
%"class.absl::lts_20240722::internal_any_invocable::Impl.76" = type { %"class.absl::lts_20240722::internal_any_invocable::CoreImpl.77" }
%"class.absl::lts_20240722::internal_any_invocable::CoreImpl.77" = type { %"union.absl::lts_20240722::internal_any_invocable::TypeErasedState", ptr, ptr }
%"class.grpc_core::SliceBuffer" = type { %struct.grpc_slice_buffer }
%struct.grpc_slice_buffer = type { ptr, ptr, i64, i64, i64, [6 x %struct.grpc_slice] }
%struct.grpc_slice = type { ptr, %"union.grpc_slice::grpc_slice_data" }
%"union.grpc_slice::grpc_slice_data" = type { %"struct.grpc_slice::grpc_slice_data::grpc_slice_refcounted", [8 x i8] }
%"struct.grpc_slice::grpc_slice_data::grpc_slice_refcounted" = type { i64, ptr }
%struct.grpc_closure = type { %union.anon.78, ptr, ptr, %union.anon.79 }
%union.anon.78 = type { ptr }
%union.anon.79 = type { i64 }
%struct.grpc_http_parser = type { i32, i32, %union.anon.80, i64, i64, [4096 x i8], i64, i64 }
%union.anon.80 = type { ptr }
%struct.grpc_http_response = type { i32, i64, ptr, i64, i32, i64, ptr }
%"class.absl::lts_20240722::Status" = type { i64 }
%"struct.grpc_core::HandshakerArgs" = type { %"class.std::unique_ptr.61", %"class.grpc_core::ChannelArgs", %"class.grpc_core::SliceBuffer", i8, ptr, %"class.grpc_core::Timestamp", ptr }
%"class.std::unique_ptr.61" = type { %"struct.std::__uniq_ptr_data.62" }
%"struct.std::__uniq_ptr_data.62" = type { %"class.std::__uniq_ptr_impl.63" }
%"class.std::__uniq_ptr_impl.63" = type { %"class.std::tuple.64" }
%"class.std::tuple.64" = type { %"struct.std::_Tuple_impl.65" }
%"struct.std::_Tuple_impl.65" = type { %"struct.std::_Head_base.68" }
%"struct.std::_Head_base.68" = type { ptr }
%"class.grpc_core::ChannelArgs" = type { %"class.grpc_core::AVL" }
%"class.grpc_core::AVL" = type { %"class.grpc_core::RefCountedPtr" }
%"class.grpc_core::RefCountedPtr" = type { ptr }
%"class.grpc_core::Timestamp" = type { i64 }
%"class.absl::lts_20240722::AnyInvocable.103" = type { %"class.absl::lts_20240722::internal_any_invocable::Impl.104" }
%"class.absl::lts_20240722::internal_any_invocable::Impl.104" = type { %"class.absl::lts_20240722::internal_any_invocable::CoreImpl.105" }
%"class.absl::lts_20240722::internal_any_invocable::CoreImpl.105" = type { %"union.absl::lts_20240722::internal_any_invocable::TypeErasedState", ptr, ptr }
%class.anon.106 = type { ptr, %"class.absl::lts_20240722::Status" }

; Function Attrs: mustprogress nounwind uwtable
define internal void @"_ZN4absl12lts_2024072222internal_any_invocable8CoreImplILb0EvJEE22InitializeLocalManagerIZN9grpc_core12_GLOBAL__N_121HttpConnectHandshaker20OnWriteDoneSchedulerEPvNS0_6StatusEE3$_0TnNSt9enable_ifIXntsr3std21is_trivially_copyableIT_EE5valueEiE4typeELi0EEEvv"(ptr noundef nonnull align 16 dereferenceable(32) %0) #5 align 2 {
  %2 = alloca ptr, align 8
  store ptr %0, ptr %2, align 8, !tbaa !308
  %3 = load ptr, ptr %2, align 8
  %4 = getelementptr inbounds nuw %"class.absl::lts_20240722::internal_any_invocable::CoreImpl.105", ptr %3, i32 0, i32 1
  store ptr @"_ZN4absl12lts_2024072222internal_any_invocable22LocalManagerNontrivialIZN9grpc_core12_GLOBAL__N_121HttpConnectHandshaker20OnWriteDoneSchedulerEPvNS0_6StatusEE3$_0EEvNS1_14FunctionToCallEPNS1_15TypeErasedStateESB_", ptr %4, align 16, !tbaa !310
  ret void
}

; Function Attrs: inlinehint mustprogress nounwind uwtable
define internal void @"_ZZN9grpc_core12_GLOBAL__N_121HttpConnectHandshaker20OnWriteDoneSchedulerEPvN4absl12lts_202407226StatusEEN3$_0C2EOS6_"(ptr noundef nonnull align 8 dereferenceable(16) %0, ptr noundef nonnull align 8 dereferenceable(16) %1) unnamed_addr #11 align 2 {
  %3 = alloca ptr, align 8
  %4 = alloca ptr, align 8
  store ptr %0, ptr %3, align 8, !tbaa !25
  store ptr %1, ptr %4, align 8, !tbaa !25
  %5 = load ptr, ptr %3, align 8
  %6 = getelementptr inbounds nuw %class.anon.106, ptr %5, i32 0, i32 0
  %7 = load ptr, ptr %4, align 8, !tbaa !25
  %8 = getelementptr inbounds nuw %class.anon.106, ptr %7, i32 0, i32 0
  %9 = load ptr, ptr %8, align 8, !tbaa !219
  store ptr %9, ptr %6, align 8, !tbaa !219
  %10 = getelementptr inbounds nuw %class.anon.106, ptr %5, i32 0, i32 1
  %11 = load ptr, ptr %4, align 8, !tbaa !25
  %12 = getelementptr inbounds nuw %class.anon.106, ptr %11, i32 0, i32 1
  call void @_ZN4absl12lts_202407226StatusC2EOS1_(ptr noundef nonnull align 8 dereferenceable(8) %10, ptr noundef nonnull align 8 dereferenceable(8) %12) #3
  ret void
}

; Function Attrs: mustprogress uwtable
define internal void @"_ZN4absl12lts_2024072222internal_any_invocable8CoreImplILb0EvJEE17InitializeStorageIRZN9grpc_core12_GLOBAL__N_121HttpConnectHandshaker20OnWriteDoneSchedulerEPvNS0_6StatusEE3$_0JSA_EvEEvDpOT0_"(ptr noundef nonnull align 16 dereferenceable(32) %0, ptr noundef nonnull align 8 dereferenceable(16) %1) #4 align 2 {
  %3 = alloca ptr, align 8
  %4 = alloca ptr, align 8
  store ptr %0, ptr %3, align 8, !tbaa !308
  store ptr %1, ptr %4, align 8, !tbaa !25
  %5 = load ptr, ptr %3, align 8
  %6 = getelementptr inbounds nuw %"class.absl::lts_20240722::internal_any_invocable::CoreImpl.105", ptr %5, i32 0, i32 0
  %7 = load ptr, ptr %4, align 8, !tbaa !25
  call void @"_ZZN9grpc_core12_GLOBAL__N_121HttpConnectHandshaker20OnWriteDoneSchedulerEPvN4absl12lts_202407226StatusEEN3$_0C2EOS6_"(ptr noundef nonnull align 8 dereferenceable(16) %6, ptr noundef nonnull align 8 dereferenceable(16) %7) #3
  %8 = getelementptr inbounds nuw %"class.absl::lts_20240722::internal_any_invocable::CoreImpl.105", ptr %5, i32 0, i32 2
  store ptr @"_ZN4absl12lts_2024072222internal_any_invocable12LocalInvokerILb0EvRZN9grpc_core12_GLOBAL__N_121HttpConnectHandshaker20OnWriteDoneSchedulerEPvNS0_6StatusEE3$_0JEEET0_PNS1_15TypeErasedStateEDpNS1_18ForwardedParameterIT2_E4typeE", ptr %8, align 8, !tbaa !316
  call void @"_ZN4absl12lts_2024072222internal_any_invocable8CoreImplILb0EvJEE22InitializeLocalManagerIZN9grpc_core12_GLOBAL__N_121HttpConnectHandshaker20OnWriteDoneSchedulerEPvNS0_6StatusEE3$_0TnNSt9enable_ifIXntsr3std21is_trivially_copyableIT_EE5valueEiE4typeELi0EEEvv"(ptr noundef nonnull align 16 dereferenceable(32) %5)
  ret void
}

; Function Attrs: mustprogress uwtable
define internal void @"_ZN4absl12lts_2024072222internal_any_invocable8CoreImplILb0EvJEE10InitializeILNS3_10TargetTypeE3ERZN9grpc_core12_GLOBAL__N_121HttpConnectHandshaker20OnWriteDoneSchedulerEPvNS0_6StatusEE3$_0SB_vEEvOT1_"(ptr noundef nonnull align 16 dereferenceable(32) %0, ptr noundef nonnull align 8 dereferenceable(16) %1) #4 align 2 {
  %3 = alloca ptr, align 8
  %4 = alloca ptr, align 8
  store ptr %0, ptr %3, align 8, !tbaa !308
  store ptr %1, ptr %4, align 8, !tbaa !25
  %5 = load ptr, ptr %3, align 8
  %6 = load ptr, ptr %4, align 8, !tbaa !25
  call void @"_ZN4absl12lts_2024072222internal_any_invocable8CoreImplILb0EvJEE17InitializeStorageIRZN9grpc_core12_GLOBAL__N_121HttpConnectHandshaker20OnWriteDoneSchedulerEPvNS0_6StatusEE3$_0JSA_EvEEvDpOT0_"(ptr noundef nonnull align 16 dereferenceable(32) %5, ptr noundef nonnull align 8 dereferenceable(16) %6)
  ret void
}

; Function Attrs: mustprogress uwtable
define internal void @"_ZN4absl12lts_2024072222internal_any_invocable8CoreImplILb0EvJEEC2IRZN9grpc_core12_GLOBAL__N_121HttpConnectHandshaker20OnWriteDoneSchedulerEPvNS0_6StatusEE3$_0SA_EENS1_24TypedConversionConstructIT_EEOT0_"(ptr noundef nonnull align 16 dereferenceable(32) %0, ptr noundef nonnull align 8 dereferenceable(16) %1) unnamed_addr #4 align 2 {
  %3 = alloca ptr, align 8
  %4 = alloca ptr, align 8
  %5 = alloca i32, align 4
  store ptr %0, ptr %3, align 8, !tbaa !308
  store ptr %1, ptr %4, align 8, !tbaa !25
  %6 = load ptr, ptr %3, align 8
  call void @llvm.lifetime.start.p0(i64 4, ptr %5) #3
  store i32 3, ptr %5, align 4, !tbaa !314
  %7 = load ptr, ptr %4, align 8, !tbaa !25
  call void @"_ZN4absl12lts_2024072222internal_any_invocable8CoreImplILb0EvJEE10InitializeILNS3_10TargetTypeE3ERZN9grpc_core12_GLOBAL__N_121HttpConnectHandshaker20OnWriteDoneSchedulerEPvNS0_6StatusEE3$_0SB_vEEvOT1_"(ptr noundef nonnull align 16 dereferenceable(32) %6, ptr noundef nonnull align 8 dereferenceable(16) %7)
  call void @llvm.lifetime.end.p0(i64 4, ptr %5) #3
  ret void
}

; Function Attrs: mustprogress nounwind uwtable
define linkonce_odr noundef i64 @_ZN4absl12lts_202407226Status16CodeToInlinedRepENS0_10StatusCodeE(i32 noundef %0) #5 comdat align 2 {
  %2 = alloca i32, align 4
  store i32 %0, ptr %2, align 4, !tbaa !227
  %3 = load i32, ptr %2, align 4, !tbaa !227
  %4 = sext i32 %3 to i64
  %5 = shl i64 %4, 2
  %6 = add i64 %5, 1
  ret i64 %6
}

; Function Attrs: mustprogress uwtable
define internal void @"_ZN4absl12lts_2024072222internal_any_invocable4ImplIFvvEEC2IZN9grpc_core12_GLOBAL__N_121HttpConnectHandshaker20OnWriteDoneSchedulerEPvNS0_6StatusEE3$_0EENS1_19ConversionConstructEOT_"(ptr noundef nonnull align 16 dereferenceable(32) %0, ptr noundef nonnull align 8 dereferenceable(16) %1) unnamed_addr #4 align 2 {
  %3 = alloca ptr, align 8
  %4 = alloca ptr, align 8
  store ptr %0, ptr %3, align 8, !tbaa !312
  store ptr %1, ptr %4, align 8, !tbaa !25
  %5 = load ptr, ptr %3, align 8
  %6 = load ptr, ptr %4, align 8, !tbaa !25
  call void @"_ZN4absl12lts_2024072222internal_any_invocable8CoreImplILb0EvJEEC2IRZN9grpc_core12_GLOBAL__N_121HttpConnectHandshaker20OnWriteDoneSchedulerEPvNS0_6StatusEE3$_0SA_EENS1_24TypedConversionConstructIT_EEOT0_"(ptr noundef nonnull align 16 dereferenceable(32) %5, ptr noundef nonnull align 8 dereferenceable(16) %6)
  ret void
}

; Function Attrs: noinline noreturn nounwind uwtable
define linkonce_odr hidden void @__clang_call_terminate(ptr noundef %0) #13 comdat {
  %2 = call ptr @__cxa_begin_catch(ptr %0) #3
  call void @_ZSt9terminatev() #28
  unreachable
}

; Function Attrs: mustprogress nounwind uwtable
define linkonce_odr noundef i64 @_ZN4absl12lts_202407226Status12MovedFromRepEv() #5 comdat align 2 {
  %1 = call noundef i64 @_ZN4absl12lts_202407226Status16CodeToInlinedRepENS0_10StatusCodeE(i32 noundef 13)
  %2 = or i64 %1, 2
  ret i64 %2
}

; Function Attrs: mustprogress nounwind uwtable
define linkonce_odr void @_ZN4absl12lts_202407226StatusC2Em(ptr noundef nonnull align 8 dereferenceable(8) %0, i64 noundef %1) unnamed_addr #5 comdat align 2 {
  %3 = alloca ptr, align 8
  %4 = alloca i64, align 8
  store ptr %0, ptr %3, align 8, !tbaa !146
  store i64 %1, ptr %4, align 8, !tbaa !52
  %5 = load ptr, ptr %3, align 8
  %6 = getelementptr inbounds nuw %"class.absl::lts_20240722::Status", ptr %5, i32 0, i32 0
  %7 = load i64, ptr %4, align 8, !tbaa !52
  store i64 %7, ptr %6, align 8, !tbaa !173
  ret void
}

; Function Attrs: mustprogress nounwind uwtable
define linkonce_odr void @_ZN4absl12lts_2024072222internal_any_invocable8CoreImplILb0EvJEED2Ev(ptr noundef nonnull align 16 dereferenceable(32) %0) unnamed_addr #5 comdat align 2 {
  %2 = alloca ptr, align 8
  store ptr %0, ptr %2, align 8, !tbaa !308
  %3 = load ptr, ptr %2, align 8
  %4 = getelementptr inbounds nuw %"class.absl::lts_20240722::internal_any_invocable::CoreImpl.105", ptr %3, i32 0, i32 1
  %5 = load ptr, ptr %4, align 16, !tbaa !310
  %6 = getelementptr inbounds nuw %"class.absl::lts_20240722::internal_any_invocable::CoreImpl.105", ptr %3, i32 0, i32 0
  %7 = getelementptr inbounds nuw %"class.absl::lts_20240722::internal_any_invocable::CoreImpl.105", ptr %3, i32 0, i32 0
  call void %5(i1 noundef zeroext true, ptr noundef %6, ptr noundef %7) #3
  ret void
}

; Function Attrs: mustprogress uwtable
define internal void @"_ZN4absl12lts_2024072212AnyInvocableIFvvEEC2IZN9grpc_core12_GLOBAL__N_121HttpConnectHandshaker20OnWriteDoneSchedulerEPvNS0_6StatusEE3$_0vEEOT_"(ptr noundef nonnull align 16 dereferenceable(32) %0, ptr noundef nonnull align 8 dereferenceable(16) %1) unnamed_addr #4 align 2 {
  %3 = alloca ptr, align 8
  %4 = alloca ptr, align 8
  store ptr %0, ptr %3, align 8, !tbaa !306
  store ptr %1, ptr %4, align 8, !tbaa !25
  %5 = load ptr, ptr %3, align 8
  %6 = load ptr, ptr %4, align 8, !tbaa !25
  call void @"_ZN4absl12lts_2024072222internal_any_invocable4ImplIFvvEEC2IZN9grpc_core12_GLOBAL__N_121HttpConnectHandshaker20OnWriteDoneSchedulerEPvNS0_6StatusEE3$_0EENS1_19ConversionConstructEOT_"(ptr noundef nonnull align 16 dereferenceable(32) %5, ptr noundef nonnull align 8 dereferenceable(16) %6)
  ret void
}

; Function Attrs: inlinehint mustprogress nounwind uwtable
define linkonce_odr void @_ZN4absl12lts_202407226StatusC2EOS1_(ptr noundef nonnull align 8 dereferenceable(8) %0, ptr noundef nonnull align 8 dereferenceable(8) %1) unnamed_addr #11 comdat align 2 personality ptr @__gxx_personality_v0 {
  %3 = alloca ptr, align 8
  %4 = alloca ptr, align 8
  store ptr %0, ptr %3, align 8, !tbaa !146
  store ptr %1, ptr %4, align 8, !tbaa !146
  %5 = load ptr, ptr %3, align 8
  %6 = load ptr, ptr %4, align 8, !tbaa !146
  %7 = getelementptr inbounds nuw %"class.absl::lts_20240722::Status", ptr %6, i32 0, i32 0
  %8 = load i64, ptr %7, align 8, !tbaa !173
  call void @_ZN4absl12lts_202407226StatusC2Em(ptr noundef nonnull align 8 dereferenceable(8) %5, i64 noundef %8)
  %9 = invoke noundef i64 @_ZN4absl12lts_202407226Status12MovedFromRepEv()
          to label %10 unwind label %13

10:                                               ; preds = %2
  %11 = load ptr, ptr %4, align 8, !tbaa !146
  %12 = getelementptr inbounds nuw %"class.absl::lts_20240722::Status", ptr %11, i32 0, i32 0
  store i64 %9, ptr %12, align 8, !tbaa !173
  ret void

13:                                               ; preds = %2
  %14 = landingpad { ptr, i32 }
          catch ptr null
  %15 = extractvalue { ptr, i32 } %14, 0
  call void @__clang_call_terminate(ptr %15) #28
  unreachable
}

; Function Attrs: mustprogress uwtable
define internal void @_ZN9grpc_core12_GLOBAL__N_121HttpConnectHandshaker20OnWriteDoneSchedulerEPvN4absl12lts_202407226StatusE(ptr noundef %0, ptr noundef %1) #4 align 2 personality ptr @__gxx_personality_v0 {
  %3 = alloca ptr, align 8
  %4 = alloca ptr, align 8
  %5 = alloca ptr, align 8
  %6 = alloca %"class.absl::lts_20240722::AnyInvocable.103", align 16
  %7 = alloca %class.anon.106, align 8
  %8 = alloca ptr, align 8
  %9 = alloca i32, align 4
  store ptr %0, ptr %3, align 8, !tbaa !25
  store ptr %1, ptr %4, align 8, !tbaa !146
  call void @llvm.lifetime.start.p0(i64 8, ptr %5) #3
  %10 = load ptr, ptr %3, align 8, !tbaa !25
  store ptr %10, ptr %5, align 8, !tbaa !82
  %11 = load ptr, ptr %5, align 8, !tbaa !82
  %12 = getelementptr inbounds nuw %"class.grpc_core::(anonymous namespace)::HttpConnectHandshaker", ptr %11, i32 0, i32 2
  %13 = load ptr, ptr %12, align 8, !tbaa !83
  %14 = getelementptr inbounds nuw %"struct.grpc_core::HandshakerArgs", ptr %13, i32 0, i32 4
  %15 = load ptr, ptr %14, align 8, !tbaa !203
  call void @llvm.lifetime.start.p0(i64 16, ptr %7) #3
  %16 = getelementptr inbounds nuw %class.anon.106, ptr %7, i32 0, i32 0
  %17 = load ptr, ptr %5, align 8, !tbaa !82
  store ptr %17, ptr %16, align 8, !tbaa !219
  %18 = getelementptr inbounds nuw %class.anon.106, ptr %7, i32 0, i32 1
  call void @_ZN4absl12lts_202407226StatusC2EOS1_(ptr noundef nonnull align 8 dereferenceable(8) %18, ptr noundef nonnull align 8 dereferenceable(8) %1) #3
  invoke void @"_ZN4absl12lts_2024072212AnyInvocableIFvvEEC2IZN9grpc_core12_GLOBAL__N_121HttpConnectHandshaker20OnWriteDoneSchedulerEPvNS0_6StatusEE3$_0vEEOT_"(ptr noundef nonnull align 16 dereferenceable(32) %6, ptr noundef nonnull align 8 dereferenceable(16) %7)
          to label %19 unwind label %24

19:                                               ; preds = %2
  %20 = load ptr, ptr %15, align 8, !tbaa !30
  %21 = getelementptr inbounds ptr, ptr %20, i64 9
  %22 = load ptr, ptr %21, align 8
  invoke void %22(ptr noundef nonnull align 8 dereferenceable(24) %15, ptr noundef %6)
          to label %23 unwind label %28

23:                                               ; preds = %19
  call void @_ZN4absl12lts_2024072222internal_any_invocable8CoreImplILb0EvJEED2Ev(ptr noundef nonnull align 16 dereferenceable(32) %6) #3
  call void @"_ZZN9grpc_core12_GLOBAL__N_121HttpConnectHandshaker20OnWriteDoneSchedulerEPvN4absl12lts_202407226StatusEEN3$_0D2Ev"(ptr noundef nonnull align 8 dereferenceable(16) %7) #3
  call void @llvm.lifetime.end.p0(i64 16, ptr %7) #3
  call void @llvm.lifetime.end.p0(i64 8, ptr %5) #3
  ret void

24:                                               ; preds = %2
  %25 = landingpad { ptr, i32 }
          cleanup
  %26 = extractvalue { ptr, i32 } %25, 0
  store ptr %26, ptr %8, align 8
  %27 = extractvalue { ptr, i32 } %25, 1
  store i32 %27, ptr %9, align 4
  br label %32

28:                                               ; preds = %19
  %29 = landingpad { ptr, i32 }
          cleanup
  %30 = extractvalue { ptr, i32 } %29, 0
  store ptr %30, ptr %8, align 8
  %31 = extractvalue { ptr, i32 } %29, 1
  store i32 %31, ptr %9, align 4
  call void @_ZN4absl12lts_2024072222internal_any_invocable8CoreImplILb0EvJEED2Ev(ptr noundef nonnull align 16 dereferenceable(32) %6) #3
  br label %32

32:                                               ; preds = %28, %24
  call void @"_ZZN9grpc_core12_GLOBAL__N_121HttpConnectHandshaker20OnWriteDoneSchedulerEPvN4absl12lts_202407226StatusEEN3$_0D2Ev"(ptr noundef nonnull align 8 dereferenceable(16) %7) #3
  call void @llvm.lifetime.end.p0(i64 16, ptr %7) #3
  call void @llvm.lifetime.end.p0(i64 8, ptr %5) #3
  br label %33

33:                                               ; preds = %32
  %34 = load ptr, ptr %8, align 8
  %35 = load i32, ptr %9, align 4
  %36 = insertvalue { ptr, i32 } poison, ptr %34, 0
  %37 = insertvalue { ptr, i32 } %36, i32 %35, 1
  resume { ptr, i32 } %37
}